target datalayout = "e-m:e-p270:32:32-p271:32:32-p272:64:64-i64:64-i128:128-f80:128-n8:16:32:64-S128"
target triple = "x86_64-pc-linux-gnu"

%struct.jv = type { i8, i8, i16, i32, %union.anon }
%union.anon = type { ptr }
%struct.bytecode = type { ptr, i32, i32, i32, %struct.jv, ptr, ptr, i32, ptr, %struct.jv }

; Function Attrs: nounwind uwtable
define internal i32 @ret_follows(ptr noundef %0) #0 {
  %2 = alloca i32, align 4
  %3 = alloca ptr, align 8
  store ptr %0, ptr %3, align 8, !tbaa !33
  %4 = load ptr, ptr %3, align 8, !tbaa !33
  %5 = load i16, ptr %4, align 2, !tbaa !20
  %6 = zext i16 %5 to i32
  %7 = icmp eq i32 %6, 29
  br i1 %7, label %8, label %9

8:                                                ; preds = %1
  store i32 1, ptr %2, align 4
  br label %25

9:                                                ; preds = %1
  %10 = load ptr, ptr %3, align 8, !tbaa !33
  %11 = getelementptr inbounds nuw i16, ptr %10, i32 1
  store ptr %11, ptr %3, align 8, !tbaa !33
  %12 = load i16, ptr %10, align 2, !tbaa !20
  %13 = zext i16 %12 to i32
  %14 = icmp ne i32 %13, 17
  br i1 %14, label %15, label %16

15:                                               ; preds = %9
  store i32 0, ptr %2, align 4
  br label %25

16:                                               ; preds = %9
  %17 = load ptr, ptr %3, align 8, !tbaa !33
  %18 = load ptr, ptr %3, align 8, !tbaa !33
  %19 = load i16, ptr %18, align 2, !tbaa !20
  %20 = zext i16 %19 to i32
  %21 = sext i32 %20 to i64
  %22 = getelementptr inbounds i16, ptr %17, i64 %21
  %23 = getelementptr inbounds i16, ptr %22, i64 1
  %24 = call i32 @ret_follows(ptr noundef %23)
  store i32 %24, ptr %2, align 4
  br label %25

25:                                               ; preds = %16, %15, %8
  %26 = load i32, ptr %2, align 4
  ret i32 %26
}

; Function Attrs: nounwind uwtable
define internal zeroext i16 @tail_call_analyze(ptr noundef %0) #0 {
  %2 = alloca i16, align 2
  %3 = alloca ptr, align 8
  %4 = alloca i16, align 2
  %5 = alloca i32, align 4
  store ptr %0, ptr %3, align 8, !tbaa !33
  %6 = load ptr, ptr %3, align 8, !tbaa !33
  %7 = getelementptr inbounds nuw i16, ptr %6, i32 1
  store ptr %7, ptr %3, align 8, !tbaa !33
  call void @llvm.lifetime.start.p0(i64 2, ptr %4) #7
  %8 = load ptr, ptr %3, align 8, !tbaa !33
  %9 = getelementptr inbounds nuw i16, ptr %8, i32 1
  store ptr %9, ptr %3, align 8, !tbaa !33
  %10 = load i16, ptr %8, align 2, !tbaa !20
  %11 = zext i16 %10 to i32
  %12 = add nsw i32 %11, 1
  %13 = trunc i32 %12 to i16
  store i16 %13, ptr %4, align 2, !tbaa !20
  br label %14

14:                                               ; preds = %27, %1
  %15 = load i16, ptr %4, align 2, !tbaa !20
  %16 = zext i16 %15 to i32
  %17 = icmp sgt i32 %16, 0
  br i1 %17, label %19, label %18

18:                                               ; preds = %14
  store i32 2, ptr %5, align 4
  br label %32

19:                                               ; preds = %14
  %20 = load ptr, ptr %3, align 8, !tbaa !33
  %21 = getelementptr inbounds nuw i16, ptr %20, i32 1
  store ptr %21, ptr %3, align 8, !tbaa !33
  %22 = load i16, ptr %20, align 2, !tbaa !20
  %23 = zext i16 %22 to i32
  %24 = icmp eq i32 %23, 0
  br i1 %24, label %25, label %26

25:                                               ; preds = %19
  store i16 28, ptr %2, align 2
  store i32 1, ptr %5, align 4
  br label %32

26:                                               ; preds = %19
  br label %27

27:                                               ; preds = %26
  %28 = load ptr, ptr %3, align 8, !tbaa !33
  %29 = getelementptr inbounds nuw i16, ptr %28, i32 1
  store ptr %29, ptr %3, align 8, !tbaa !33
  %30 = load i16, ptr %4, align 2, !tbaa !20
  %31 = add i16 %30, -1
  store i16 %31, ptr %4, align 2, !tbaa !20
  br label %14, !llvm.loop !110

32:                                               ; preds = %25, %18
  call void @llvm.lifetime.end.p0(i64 2, ptr %4) #7
  %33 = load i32, ptr %5, align 4
  switch i32 %33, label %42 [
    i32 2, label %34
    i32 1, label %40
  ]

34:                                               ; preds = %32
  %35 = load ptr, ptr %3, align 8, !tbaa !33
  %36 = call i32 @ret_follows(ptr noundef %35)
  %37 = icmp ne i32 %36, 0
  br i1 %37, label %38, label %39

38:                                               ; preds = %34
  store i16 30, ptr %2, align 2
  br label %40

39:                                               ; preds = %34
  store i16 28, ptr %2, align 2
  br label %40

40:                                               ; preds = %39, %38, %32
  %41 = load i16, ptr %2, align 2
  ret i16 %41

42:                                               ; preds = %32
  unreachable
}

; Function Attrs: nounwind uwtable
define internal ptr @optimize_code(ptr noundef %0) #0 {
  %2 = alloca ptr, align 8
  %3 = alloca ptr, align 8
  store ptr %0, ptr %2, align 8, !tbaa !49
  call void @llvm.lifetime.start.p0(i64 8, ptr %3) #7
  %4 = load ptr, ptr %2, align 8, !tbaa !49
  %5 = getelementptr inbounds nuw %struct.bytecode, ptr %4, i32 0, i32 0
  %6 = load ptr, ptr %5, align 8, !tbaa !77
  store ptr %6, ptr %3, align 8, !tbaa !33
  br label %7

7:                                                ; preds = %27, %1
  %8 = load ptr, ptr %3, align 8, !tbaa !33
  %9 = load ptr, ptr %2, align 8, !tbaa !49
  %10 = getelementptr inbounds nuw %struct.bytecode, ptr %9, i32 0, i32 0
  %11 = load ptr, ptr %10, align 8, !tbaa !77
  %12 = load ptr, ptr %2, align 8, !tbaa !49
  %13 = getelementptr inbounds nuw %struct.bytecode, ptr %12, i32 0, i32 1
  %14 = load i32, ptr %13, align 8, !tbaa !108
  %15 = sext i32 %14 to i64
  %16 = getelementptr inbounds i16, ptr %11, i64 %15
  %17 = icmp ult ptr %8, %16
  br i1 %17, label %18, label %33

18:                                               ; preds = %7
  %19 = load ptr, ptr %3, align 8, !tbaa !33
  %20 = load i16, ptr %19, align 2, !tbaa !20
  %21 = zext i16 %20 to i32
  switch i32 %21, label %26 [
    i32 28, label %22
  ]

22:                                               ; preds = %18
  %23 = load ptr, ptr %3, align 8, !tbaa !33
  %24 = call zeroext i16 @tail_call_analyze(ptr noundef %23)
  %25 = load ptr, ptr %3, align 8, !tbaa !33
  store i16 %24, ptr %25, align 2, !tbaa !20
  br label %27

26:                                               ; preds = %18
  br label %27

27:                                               ; preds = %26, %22
  %28 = load ptr, ptr %3, align 8, !tbaa !33
  %29 = call i32 @bytecode_operation_length(ptr noundef %28)
  %30 = load ptr, ptr %3, align 8, !tbaa !33
  %31 = sext i32 %29 to i64
  %32 = getelementptr inbounds i16, ptr %30, i64 %31
  store ptr %32, ptr %3, align 8, !tbaa !33
  br label %7, !llvm.loop !109

33:                                               ; preds = %7
  %34 = load ptr, ptr %2, align 8, !tbaa !49
  call void @llvm.lifetime.end.p0(i64 8, ptr %3) #7
  ret ptr %34
}

; Function Attrs: nounwind uwtable
define internal ptr @optimize(ptr noundef %0) #0 {
  %2 = alloca ptr, align 8
  %3 = alloca i32, align 4
  store ptr %0, ptr %2, align 8, !tbaa !49
  call void @llvm.lifetime.start.p0(i64 4, ptr %3) #7
  store i32 0, ptr %3, align 4, !tbaa !21
  br label %4

4:                                                ; preds = %26, %1
  %5 = load i32, ptr %3, align 4, !tbaa !21
  %6 = load ptr, ptr %2, align 8, !tbaa !49
  %7 = getelementptr inbounds nuw %struct.bytecode, ptr %6, i32 0, i32 7
  %8 = load i32, ptr %7, align 8, !tbaa !105
  %9 = icmp slt i32 %5, %8
  br i1 %9, label %11, label %10

10:                                               ; preds = %4
  call void @llvm.lifetime.end.p0(i64 4, ptr %3) #7
  br label %29

11:                                               ; preds = %4
  %12 = load ptr, ptr %2, align 8, !tbaa !49
  %13 = getelementptr inbounds nuw %struct.bytecode, ptr %12, i32 0, i32 6
  %14 = load ptr, ptr %13, align 8, !tbaa !79
  %15 = load i32, ptr %3, align 4, !tbaa !21
  %16 = sext i32 %15 to i64
  %17 = getelementptr inbounds ptr, ptr %14, i64 %16
  %18 = load ptr, ptr %17, align 8, !tbaa !49
  %19 = call ptr @optimize(ptr noundef %18)
  %20 = load ptr, ptr %2, align 8, !tbaa !49
  %21 = getelementptr inbounds nuw %struct.bytecode, ptr %20, i32 0, i32 6
  %22 = load ptr, ptr %21, align 8, !tbaa !79
  %23 = load i32, ptr %3, align 4, !tbaa !21
  %24 = sext i32 %23 to i64
  %25 = getelementptr inbounds ptr, ptr %22, i64 %24
  store ptr %19, ptr %25, align 8, !tbaa !49
  br label %26

26:                                               ; preds = %11
  %27 = load i32, ptr %3, align 4, !tbaa !21
  %28 = add nsw i32 %27, 1
  store i32 %28, ptr %3, align 4, !tbaa !21
  br label %4, !llvm.loop !106

29:                                               ; preds = %10
  %30 = load ptr, ptr %2, align 8, !tbaa !49
  %31 = call ptr @optimize_code(ptr noundef %30)
  ret ptr %31
}