; Function Attrs: nounwind uwtable
define internal fastcc noundef ptr @optimize(ptr noundef readonly returned captures(ret: address, provenance) %0) unnamed_addr #0 {
  %2 = getelementptr inbounds nuw i8, ptr %0, i64 56
  %3 = load i32, ptr %2, align 8, !tbaa !74
  %4 = icmp sgt i32 %3, 0
  br i1 %4, label %.lr.ph, label %._crit_edge

.lr.ph:                                           ; preds = %1
  %5 = getelementptr inbounds nuw i8, ptr %0, i64 48
  %.pre = load ptr, ptr %5, align 8, !tbaa !61
  br label %35

._crit_edge:                                      ; preds = %35, %1
  %6 = getelementptr inbounds nuw i8, ptr %0, i64 8
  %7 = load i32, ptr %6, align 8, !tbaa !75
  %8 = icmp sgt i32 %7, 0
  br i1 %8, label %.lr.ph.preheader.i, label %optimize_code.exit

.lr.ph.preheader.i:                               ; preds = %._crit_edge
  %9 = load ptr, ptr %0, align 8, !tbaa !63
  br label %.lr.ph.i

.lr.ph.i:                                         ; preds = %26, %.lr.ph.preheader.i
  %.011.i = phi ptr [ %29, %26 ], [ %9, %.lr.ph.preheader.i ]
  %10 = load i16, ptr %.011.i, align 2, !tbaa !31
  %cond.i = icmp eq i16 %10, 28
  br i1 %cond.i, label %11, label %26

11:                                               ; preds = %.lr.ph.i
  %12 = getelementptr inbounds nuw i8, ptr %.011.i, i64 2
  %13 = load i16, ptr %12, align 2, !tbaa !31
  %14 = add i16 %13, 1
  %.0922.i.i = getelementptr inbounds nuw i8, ptr %.011.i, i64 4
  %.not23.i.i = icmp eq i16 %14, 0
  br i1 %.not23.i.i, label %tailrecurse.i.i.i.preheader, label %.lr.ph.i.i

tailrecurse.i.i.i.preheader:                      ; preds = %15, %11
  %.tr.i.i.i.ph = phi ptr [ %.0922.i.i, %11 ], [ %.09.i.i, %15 ]
  br label %tailrecurse.i.i.i

15:                                               ; preds = %.lr.ph.i.i
  %16 = add i16 %.0824.i.i, -1
  %.09.i.i = getelementptr inbounds nuw i8, ptr %.0925.i.i, i64 4
  %.not.i.i = icmp eq i16 %16, 0
  br i1 %.not.i.i, label %tailrecurse.i.i.i.preheader, label %.lr.ph.i.i, !llvm.loop !76

.lr.ph.i.i:                                       ; preds = %11, %15
  %.0925.i.i = phi ptr [ %.09.i.i, %15 ], [ %.0922.i.i, %11 ]
  %.0824.i.i = phi i16 [ %16, %15 ], [ %14, %11 ]
  %17 = load i16, ptr %.0925.i.i, align 2, !tbaa !31
  %18 = icmp eq i16 %17, 0
  br i1 %18, label %tail_call_analyze.exit.i, label %15

tailrecurse.i.i.i:                                ; preds = %tailrecurse.i.i.i.preheader, %20
  %.tr.i.i.i = phi ptr [ %25, %20 ], [ %.tr.i.i.i.ph, %tailrecurse.i.i.i.preheader ]
  %19 = load i16, ptr %.tr.i.i.i, align 2, !tbaa !31
  switch i16 %19, label %tail_call_analyze.exit.i [
    i16 29, label %tail_call_analyze.exit.i.loopexit
    i16 17, label %20
  ]

20:                                               ; preds = %tailrecurse.i.i.i
  %21 = getelementptr inbounds nuw i8, ptr %.tr.i.i.i, i64 2
  %22 = load i16, ptr %21, align 2, !tbaa !31
  %23 = zext i16 %22 to i64
  %24 = getelementptr inbounds nuw i16, ptr %21, i64 %23
  %25 = getelementptr inbounds nuw i8, ptr %24, i64 2
  br label %tailrecurse.i.i.i

tail_call_analyze.exit.i.loopexit:                ; preds = %tailrecurse.i.i.i
  br label %tail_call_analyze.exit.i

tail_call_analyze.exit.i:                         ; preds = %.lr.ph.i.i, %tailrecurse.i.i.i, %tail_call_analyze.exit.i.loopexit
  %.111.i.i = phi i16 [ 30, %tail_call_analyze.exit.i.loopexit ], [ 28, %tailrecurse.i.i.i ], [ 28, %.lr.ph.i.i ]
  store i16 %.111.i.i, ptr %.011.i, align 2, !tbaa !31
  br label %26

26:                                               ; preds = %tail_call_analyze.exit.i, %.lr.ph.i
  %27 = tail call i32 @bytecode_operation_length(ptr noundef nonnull %.011.i) #13
  %28 = sext i32 %27 to i64
  %29 = getelementptr inbounds i16, ptr %.011.i, i64 %28
  %30 = load ptr, ptr %0, align 8, !tbaa !63
  %31 = load i32, ptr %6, align 8, !tbaa !75
  %32 = sext i32 %31 to i64
  %33 = getelementptr inbounds i16, ptr %30, i64 %32
  %34 = icmp ult ptr %29, %33
  br i1 %34, label %.lr.ph.i, label %optimize_code.exit, !llvm.loop !77

optimize_code.exit:                               ; preds = %26, %._crit_edge
  ret ptr %0

35:                                               ; preds = %.lr.ph, %35
  %36 = phi ptr [ %.pre, %.lr.ph ], [ %40, %35 ]
  %indvars.iv = phi i64 [ 0, %.lr.ph ], [ %indvars.iv.next, %35 ]
  %37 = getelementptr inbounds nuw ptr, ptr %36, i64 %indvars.iv
  %38 = load ptr, ptr %37, align 8, !tbaa !32
  %39 = tail call fastcc ptr @optimize(ptr noundef %38)
  %40 = load ptr, ptr %5, align 8, !tbaa !61
  %41 = getelementptr inbounds nuw ptr, ptr %40, i64 %indvars.iv
  store ptr %38, ptr %41, align 8, !tbaa !32
  %indvars.iv.next = add nuw nsw i64 %indvars.iv, 1
  %42 = load i32, ptr %2, align 8, !tbaa !74
  %43 = sext i32 %42 to i64
  %44 = icmp slt i64 %indvars.iv.next, %43
  br i1 %44, label %35, label %._crit_edge, !llvm.loop !78
}